target datalayout = "e-m:e-p270:32:32-p271:32:32-p272:64:64-i64:64-i128:128-f80:128-n8:16:32:64-S128"
target triple = "x86_64-pc-linux-gnu"

%struct._packet_info = type { ptr, ptr, i32, i32, %struct.nstime_t, %struct.nstime_t, %struct.nstime_t, i8, ptr, ptr, ptr, ptr, %struct._address, %struct._address, %struct._address, %struct._address, %struct._address, %struct._address, i32, ptr, i8, [3 x i8], %struct.anon, i32, i32, i32, i32, ptr, i8, ptr, ptr, i16, i16, i32, i32, i16, i32, i32, ptr, ptr, ptr, i8, i8, i16, i16, i16, i32, i16, i16, ptr, ptr, ptr, ptr, ptr, i32, i32 }
%struct.nstime_t = type { i64, i32 }
%struct._address = type { i32, i32, ptr, ptr }
%struct.anon = type { i8, [3 x i8] }

@hf_x11_reply = internal global i32 0, align 4
@hf_x11_reply_sequencenumber = internal global i32 0, align 4
@hf_x11_replylength = internal global i32 0, align 4
@hf_x11_unused = internal global i32 0, align 4
@hf_x11_xkb_ListComponents_reply_deviceID = internal global i32 0, align 4
@hf_x11_xkb_ListComponents_reply_nKeymaps = internal global i32 0, align 4
@hf_x11_xkb_ListComponents_reply_nKeycodes = internal global i32 0, align 4
@hf_x11_xkb_ListComponents_reply_nTypes = internal global i32 0, align 4
@hf_x11_xkb_ListComponents_reply_nCompatMaps = internal global i32 0, align 4
@hf_x11_xkb_ListComponents_reply_nSymbols = internal global i32 0, align 4
@hf_x11_xkb_ListComponents_reply_nGeometries = internal global i32 0, align 4
@hf_x11_xkb_ListComponents_reply_extra = internal global i32 0, align 4
@.str.15534 = private unnamed_addr constant [16 x i8] c"-ListComponents\00", align 1
@.str.15535 = private unnamed_addr constant [24 x i8] c"%d (xkb-ListComponents)\00", align 1

; Function Attrs: null_pointer_is_valid sspstrong uwtable
define internal void @xkbListComponents_Reply(ptr noundef %0, ptr noundef %1, ptr noundef %2, ptr noundef %3, i32 noundef %4) #1 {
  %6 = alloca ptr, align 8
  %7 = alloca ptr, align 8
  %8 = alloca ptr, align 8
  %9 = alloca ptr, align 8
  %10 = alloca i32, align 4
  %11 = alloca i32, align 4
  %12 = alloca i32, align 4
  %13 = alloca i32, align 4
  %14 = alloca i32, align 4
  %15 = alloca i32, align 4
  %16 = alloca i32, align 4
  %17 = alloca i32, align 4
  store ptr %0, ptr %6, align 8
  store ptr %1, ptr %7, align 8
  store ptr %2, ptr %8, align 8
  store ptr %3, ptr %9, align 8
  store i32 %4, ptr %10, align 4
  call void @llvm.lifetime.start.p0(i64 4, ptr %11) #11
  call void @llvm.lifetime.start.p0(i64 4, ptr %12) #11
  call void @llvm.lifetime.start.p0(i64 4, ptr %13) #11
  call void @llvm.lifetime.start.p0(i64 4, ptr %14) #11
  call void @llvm.lifetime.start.p0(i64 4, ptr %15) #11
  call void @llvm.lifetime.start.p0(i64 4, ptr %16) #11
  call void @llvm.lifetime.start.p0(i64 4, ptr %17) #11
  %18 = load ptr, ptr %7, align 8
  %19 = getelementptr inbounds nuw %struct._packet_info, ptr %18, i32 0, i32 1
  %20 = load ptr, ptr %19, align 8
  call void (ptr, i32, ptr, ...) @col_append_fstr(ptr noundef %20, i32 noundef 25, ptr noundef @.str.15534)
  %21 = load ptr, ptr %6, align 8
  %22 = load ptr, ptr %8, align 8
  %23 = load ptr, ptr %9, align 8
  %24 = load i32, ptr @hf_x11_reply, align 4
  %25 = load i32, ptr %10, align 4
  %26 = call i32 @field8(ptr noundef %21, ptr noundef %22, ptr noundef %23, i32 noundef %24, i32 noundef %25)
  %27 = load ptr, ptr %9, align 8
  %28 = load i32, ptr @hf_x11_xkb_ListComponents_reply_deviceID, align 4
  %29 = load ptr, ptr %6, align 8
  %30 = load ptr, ptr %8, align 8
  %31 = load i32, ptr %30, align 4
  %32 = load i32, ptr %10, align 4
  %33 = call ptr @proto_tree_add_item(ptr noundef %27, i32 noundef %28, ptr noundef %29, i32 noundef %31, i32 noundef 1, i32 noundef %32)
  %34 = load ptr, ptr %8, align 8
  %35 = load i32, ptr %34, align 4
  %36 = add i32 %35, 1
  store i32 %36, ptr %34, align 4
  %37 = load ptr, ptr %6, align 8
  %38 = load ptr, ptr %8, align 8
  %39 = load i32, ptr %38, align 4
  %40 = load i32, ptr %10, align 4
  %41 = call zeroext i16 @tvb_get_uint16(ptr noundef %37, i32 noundef %39, i32 noundef %40)
  %42 = zext i16 %41 to i32
  store i32 %42, ptr %11, align 4
  %43 = load ptr, ptr %9, align 8
  %44 = load i32, ptr @hf_x11_reply_sequencenumber, align 4
  %45 = load ptr, ptr %6, align 8
  %46 = load ptr, ptr %8, align 8
  %47 = load i32, ptr %46, align 4
  %48 = load i32, ptr %11, align 4
  %49 = load i32, ptr %11, align 4
  %50 = call ptr (ptr, i32, ptr, i32, i32, i32, ptr, ...) @proto_tree_add_uint_format_value(ptr noundef %43, i32 noundef %44, ptr noundef %45, i32 noundef %47, i32 noundef 2, i32 noundef %48, ptr noundef @.str.15535, i32 noundef %49)
  %51 = load ptr, ptr %8, align 8
  %52 = load i32, ptr %51, align 4
  %53 = add i32 %52, 2
  store i32 %53, ptr %51, align 4
  %54 = load ptr, ptr %9, align 8
  %55 = load i32, ptr @hf_x11_replylength, align 4
  %56 = load ptr, ptr %6, align 8
  %57 = load ptr, ptr %8, align 8
  %58 = load i32, ptr %57, align 4
  %59 = load i32, ptr %10, align 4
  %60 = call ptr @proto_tree_add_item(ptr noundef %54, i32 noundef %55, ptr noundef %56, i32 noundef %58, i32 noundef 4, i32 noundef %59)
  %61 = load ptr, ptr %8, align 8
  %62 = load i32, ptr %61, align 4
  %63 = add i32 %62, 4
  store i32 %63, ptr %61, align 4
  %64 = load ptr, ptr %6, align 8
  %65 = load ptr, ptr %8, align 8
  %66 = load i32, ptr %65, align 4
  %67 = load i32, ptr %10, align 4
  %68 = call zeroext i16 @tvb_get_uint16(ptr noundef %64, i32 noundef %66, i32 noundef %67)
  %69 = zext i16 %68 to i32
  store i32 %69, ptr %12, align 4
  %70 = load ptr, ptr %9, align 8
  %71 = load i32, ptr @hf_x11_xkb_ListComponents_reply_nKeymaps, align 4
  %72 = load ptr, ptr %6, align 8
  %73 = load ptr, ptr %8, align 8
  %74 = load i32, ptr %73, align 4
  %75 = load i32, ptr %10, align 4
  %76 = call ptr @proto_tree_add_item(ptr noundef %70, i32 noundef %71, ptr noundef %72, i32 noundef %74, i32 noundef 2, i32 noundef %75)
  %77 = load ptr, ptr %8, align 8
  %78 = load i32, ptr %77, align 4
  %79 = add i32 %78, 2
  store i32 %79, ptr %77, align 4
  %80 = load ptr, ptr %6, align 8
  %81 = load ptr, ptr %8, align 8
  %82 = load i32, ptr %81, align 4
  %83 = load i32, ptr %10, align 4
  %84 = call zeroext i16 @tvb_get_uint16(ptr noundef %80, i32 noundef %82, i32 noundef %83)
  %85 = zext i16 %84 to i32
  store i32 %85, ptr %13, align 4
  %86 = load ptr, ptr %9, align 8
  %87 = load i32, ptr @hf_x11_xkb_ListComponents_reply_nKeycodes, align 4
  %88 = load ptr, ptr %6, align 8
  %89 = load ptr, ptr %8, align 8
  %90 = load i32, ptr %89, align 4
  %91 = load i32, ptr %10, align 4
  %92 = call ptr @proto_tree_add_item(ptr noundef %86, i32 noundef %87, ptr noundef %88, i32 noundef %90, i32 noundef 2, i32 noundef %91)
  %93 = load ptr, ptr %8, align 8
  %94 = load i32, ptr %93, align 4
  %95 = add i32 %94, 2
  store i32 %95, ptr %93, align 4
  %96 = load ptr, ptr %6, align 8
  %97 = load ptr, ptr %8, align 8
  %98 = load i32, ptr %97, align 4
  %99 = load i32, ptr %10, align 4
  %100 = call zeroext i16 @tvb_get_uint16(ptr noundef %96, i32 noundef %98, i32 noundef %99)
  %101 = zext i16 %100 to i32
  store i32 %101, ptr %14, align 4
  %102 = load ptr, ptr %9, align 8
  %103 = load i32, ptr @hf_x11_xkb_ListComponents_reply_nTypes, align 4
  %104 = load ptr, ptr %6, align 8
  %105 = load ptr, ptr %8, align 8
  %106 = load i32, ptr %105, align 4
  %107 = load i32, ptr %10, align 4
  %108 = call ptr @proto_tree_add_item(ptr noundef %102, i32 noundef %103, ptr noundef %104, i32 noundef %106, i32 noundef 2, i32 noundef %107)
  %109 = load ptr, ptr %8, align 8
  %110 = load i32, ptr %109, align 4
  %111 = add i32 %110, 2
  store i32 %111, ptr %109, align 4
  %112 = load ptr, ptr %6, align 8
  %113 = load ptr, ptr %8, align 8
  %114 = load i32, ptr %113, align 4
  %115 = load i32, ptr %10, align 4
  %116 = call zeroext i16 @tvb_get_uint16(ptr noundef %112, i32 noundef %114, i32 noundef %115)
  %117 = zext i16 %116 to i32
  store i32 %117, ptr %15, align 4
  %118 = load ptr, ptr %9, align 8
  %119 = load i32, ptr @hf_x11_xkb_ListComponents_reply_nCompatMaps, align 4
  %120 = load ptr, ptr %6, align 8
  %121 = load ptr, ptr %8, align 8
  %122 = load i32, ptr %121, align 4
  %123 = load i32, ptr %10, align 4
  %124 = call ptr @proto_tree_add_item(ptr noundef %118, i32 noundef %119, ptr noundef %120, i32 noundef %122, i32 noundef 2, i32 noundef %123)
  %125 = load ptr, ptr %8, align 8
  %126 = load i32, ptr %125, align 4
  %127 = add i32 %126, 2
  store i32 %127, ptr %125, align 4
  %128 = load ptr, ptr %6, align 8
  %129 = load ptr, ptr %8, align 8
  %130 = load i32, ptr %129, align 4
  %131 = load i32, ptr %10, align 4
  %132 = call zeroext i16 @tvb_get_uint16(ptr noundef %128, i32 noundef %130, i32 noundef %131)
  %133 = zext i16 %132 to i32
  store i32 %133, ptr %16, align 4
  %134 = load ptr, ptr %9, align 8
  %135 = load i32, ptr @hf_x11_xkb_ListComponents_reply_nSymbols, align 4
  %136 = load ptr, ptr %6, align 8
  %137 = load ptr, ptr %8, align 8
  %138 = load i32, ptr %137, align 4
  %139 = load i32, ptr %10, align 4
  %140 = call ptr @proto_tree_add_item(ptr noundef %134, i32 noundef %135, ptr noundef %136, i32 noundef %138, i32 noundef 2, i32 noundef %139)
  %141 = load ptr, ptr %8, align 8
  %142 = load i32, ptr %141, align 4
  %143 = add i32 %142, 2
  store i32 %143, ptr %141, align 4
  %144 = load ptr, ptr %6, align 8
  %145 = load ptr, ptr %8, align 8
  %146 = load i32, ptr %145, align 4
  %147 = load i32, ptr %10, align 4
  %148 = call zeroext i16 @tvb_get_uint16(ptr noundef %144, i32 noundef %146, i32 noundef %147)
  %149 = zext i16 %148 to i32
  store i32 %149, ptr %17, align 4
  %150 = load ptr, ptr %9, align 8
  %151 = load i32, ptr @hf_x11_xkb_ListComponents_reply_nGeometries, align 4
  %152 = load ptr, ptr %6, align 8
  %153 = load ptr, ptr %8, align 8
  %154 = load i32, ptr %153, align 4
  %155 = load i32, ptr %10, align 4
  %156 = call ptr @proto_tree_add_item(ptr noundef %150, i32 noundef %151, ptr noundef %152, i32 noundef %154, i32 noundef 2, i32 noundef %155)
  %157 = load ptr, ptr %8, align 8
  %158 = load i32, ptr %157, align 4
  %159 = add i32 %158, 2
  store i32 %159, ptr %157, align 4
  %160 = load ptr, ptr %9, align 8
  %161 = load i32, ptr @hf_x11_xkb_ListComponents_reply_extra, align 4
  %162 = load ptr, ptr %6, align 8
  %163 = load ptr, ptr %8, align 8
  %164 = load i32, ptr %163, align 4
  %165 = load i32, ptr %10, align 4
  %166 = call ptr @proto_tree_add_item(ptr noundef %160, i32 noundef %161, ptr noundef %162, i32 noundef %164, i32 noundef 2, i32 noundef %165)
  %167 = load ptr, ptr %8, align 8
  %168 = load i32, ptr %167, align 4
  %169 = add i32 %168, 2
  store i32 %169, ptr %167, align 4
  %170 = load ptr, ptr %9, align 8
  %171 = load i32, ptr @hf_x11_unused, align 4
  %172 = load ptr, ptr %6, align 8
  %173 = load ptr, ptr %8, align 8
  %174 = load i32, ptr %173, align 4
  %175 = call ptr @proto_tree_add_item(ptr noundef %170, i32 noundef %171, ptr noundef %172, i32 noundef %174, i32 noundef 10, i32 noundef 0)
  %176 = load ptr, ptr %8, align 8
  %177 = load i32, ptr %176, align 4
  %178 = add i32 %177, 10
  store i32 %178, ptr %176, align 4
  %179 = load ptr, ptr %6, align 8
  %180 = load ptr, ptr %8, align 8
  %181 = load ptr, ptr %9, align 8
  %182 = load i32, ptr %10, align 4
  %183 = load i32, ptr %12, align 4
  call void @struct_xkb_Listing(ptr noundef %179, ptr noundef %180, ptr noundef %181, i32 noundef %182, i32 noundef %183)
  %184 = load ptr, ptr %6, align 8
  %185 = load ptr, ptr %8, align 8
  %186 = load ptr, ptr %9, align 8
  %187 = load i32, ptr %10, align 4
  %188 = load i32, ptr %13, align 4
  call void @struct_xkb_Listing(ptr noundef %184, ptr noundef %185, ptr noundef %186, i32 noundef %187, i32 noundef %188)
  %189 = load ptr, ptr %6, align 8
  %190 = load ptr, ptr %8, align 8
  %191 = load ptr, ptr %9, align 8
  %192 = load i32, ptr %10, align 4
  %193 = load i32, ptr %14, align 4
  call void @struct_xkb_Listing(ptr noundef %189, ptr noundef %190, ptr noundef %191, i32 noundef %192, i32 noundef %193)
  %194 = load ptr, ptr %6, align 8
  %195 = load ptr, ptr %8, align 8
  %196 = load ptr, ptr %9, align 8
  %197 = load i32, ptr %10, align 4
  %198 = load i32, ptr %15, align 4
  call void @struct_xkb_Listing(ptr noundef %194, ptr noundef %195, ptr noundef %196, i32 noundef %197, i32 noundef %198)
  %199 = load ptr, ptr %6, align 8
  %200 = load ptr, ptr %8, align 8
  %201 = load ptr, ptr %9, align 8
  %202 = load i32, ptr %10, align 4
  %203 = load i32, ptr %16, align 4
  call void @struct_xkb_Listing(ptr noundef %199, ptr noundef %200, ptr noundef %201, i32 noundef %202, i32 noundef %203)
  %204 = load ptr, ptr %6, align 8
  %205 = load ptr, ptr %8, align 8
  %206 = load ptr, ptr %9, align 8
  %207 = load i32, ptr %10, align 4
  %208 = load i32, ptr %17, align 4
  call void @struct_xkb_Listing(ptr noundef %204, ptr noundef %205, ptr noundef %206, i32 noundef %207, i32 noundef %208)
  call void @llvm.lifetime.end.p0(i64 4, ptr %17) #11
  call void @llvm.lifetime.end.p0(i64 4, ptr %16) #11
  call void @llvm.lifetime.end.p0(i64 4, ptr %15) #11
  call void @llvm.lifetime.end.p0(i64 4, ptr %14) #11
  call void @llvm.lifetime.end.p0(i64 4, ptr %13) #11
  call void @llvm.lifetime.end.p0(i64 4, ptr %12) #11
  call void @llvm.lifetime.end.p0(i64 4, ptr %11) #11
  ret void
}