; Function Attrs: null_pointer_is_valid sspstrong uwtable
define internal void @xkbListComponents_Reply(ptr noundef %0, ptr noundef readonly captures(none) %1, ptr noundef captures(none) %2, ptr noundef %3, i32 noundef %4) #1 {
  %6 = getelementptr inbounds nuw i8, ptr %1, i64 8
  %7 = load ptr, ptr %6, align 8
  tail call void (ptr, i32, ptr, ...) @col_append_fstr(ptr noundef %7, i32 noundef 25, ptr noundef nonnull @.str.15534)
  %8 = load i32, ptr @hf_x11_reply, align 4
  %9 = tail call fastcc i32 @field8(ptr noundef %0, ptr noundef %2, ptr noundef %3, i32 noundef %8, i32 noundef %4)
  %10 = load i32, ptr @hf_x11_xkb_ListComponents_reply_deviceID, align 4
  %11 = load i32, ptr %2, align 4
  %12 = tail call ptr @proto_tree_add_item(ptr noundef %3, i32 noundef %10, ptr noundef %0, i32 noundef %11, i32 noundef 1, i32 noundef %4)
  %13 = load i32, ptr %2, align 4
  %14 = add i32 %13, 1
  store i32 %14, ptr %2, align 4
  %15 = tail call zeroext i16 @tvb_get_uint16(ptr noundef %0, i32 noundef %14, i32 noundef %4)
  %16 = zext i16 %15 to i32
  %17 = load i32, ptr @hf_x11_reply_sequencenumber, align 4
  %18 = load i32, ptr %2, align 4
  %19 = tail call ptr (ptr, i32, ptr, i32, i32, i32, ptr, ...) @proto_tree_add_uint_format_value(ptr noundef %3, i32 noundef %17, ptr noundef %0, i32 noundef %18, i32 noundef 2, i32 noundef %16, ptr noundef nonnull @.str.15535, i32 noundef %16)
  %20 = load i32, ptr %2, align 4
  %21 = add i32 %20, 2
  store i32 %21, ptr %2, align 4
  %22 = load i32, ptr @hf_x11_replylength, align 4
  %23 = tail call ptr @proto_tree_add_item(ptr noundef %3, i32 noundef %22, ptr noundef %0, i32 noundef %21, i32 noundef 4, i32 noundef %4)
  %24 = load i32, ptr %2, align 4
  %25 = add i32 %24, 4
  store i32 %25, ptr %2, align 4
  %26 = tail call zeroext i16 @tvb_get_uint16(ptr noundef %0, i32 noundef %25, i32 noundef %4)
  %27 = zext i16 %26 to i32
  %28 = load i32, ptr @hf_x11_xkb_ListComponents_reply_nKeymaps, align 4
  %29 = load i32, ptr %2, align 4
  %30 = tail call ptr @proto_tree_add_item(ptr noundef %3, i32 noundef %28, ptr noundef %0, i32 noundef %29, i32 noundef 2, i32 noundef %4)
  %31 = load i32, ptr %2, align 4
  %32 = add i32 %31, 2
  store i32 %32, ptr %2, align 4
  %33 = tail call zeroext i16 @tvb_get_uint16(ptr noundef %0, i32 noundef %32, i32 noundef %4)
  %34 = zext i16 %33 to i32
  %35 = load i32, ptr @hf_x11_xkb_ListComponents_reply_nKeycodes, align 4
  %36 = load i32, ptr %2, align 4
  %37 = tail call ptr @proto_tree_add_item(ptr noundef %3, i32 noundef %35, ptr noundef %0, i32 noundef %36, i32 noundef 2, i32 noundef %4)
  %38 = load i32, ptr %2, align 4
  %39 = add i32 %38, 2
  store i32 %39, ptr %2, align 4
  %40 = tail call zeroext i16 @tvb_get_uint16(ptr noundef %0, i32 noundef %39, i32 noundef %4)
  %41 = zext i16 %40 to i32
  %42 = load i32, ptr @hf_x11_xkb_ListComponents_reply_nTypes, align 4
  %43 = load i32, ptr %2, align 4
  %44 = tail call ptr @proto_tree_add_item(ptr noundef %3, i32 noundef %42, ptr noundef %0, i32 noundef %43, i32 noundef 2, i32 noundef %4)
  %45 = load i32, ptr %2, align 4
  %46 = add i32 %45, 2
  store i32 %46, ptr %2, align 4
  %47 = tail call zeroext i16 @tvb_get_uint16(ptr noundef %0, i32 noundef %46, i32 noundef %4)
  %48 = zext i16 %47 to i32
  %49 = load i32, ptr @hf_x11_xkb_ListComponents_reply_nCompatMaps, align 4
  %50 = load i32, ptr %2, align 4
  %51 = tail call ptr @proto_tree_add_item(ptr noundef %3, i32 noundef %49, ptr noundef %0, i32 noundef %50, i32 noundef 2, i32 noundef %4)
  %52 = load i32, ptr %2, align 4
  %53 = add i32 %52, 2
  store i32 %53, ptr %2, align 4
  %54 = tail call zeroext i16 @tvb_get_uint16(ptr noundef %0, i32 noundef %53, i32 noundef %4)
  %55 = zext i16 %54 to i32
  %56 = load i32, ptr @hf_x11_xkb_ListComponents_reply_nSymbols, align 4
  %57 = load i32, ptr %2, align 4
  %58 = tail call ptr @proto_tree_add_item(ptr noundef %3, i32 noundef %56, ptr noundef %0, i32 noundef %57, i32 noundef 2, i32 noundef %4)
  %59 = load i32, ptr %2, align 4
  %60 = add i32 %59, 2
  store i32 %60, ptr %2, align 4
  %61 = tail call zeroext i16 @tvb_get_uint16(ptr noundef %0, i32 noundef %60, i32 noundef %4)
  %62 = zext i16 %61 to i32
  %63 = load i32, ptr @hf_x11_xkb_ListComponents_reply_nGeometries, align 4
  %64 = load i32, ptr %2, align 4
  %65 = tail call ptr @proto_tree_add_item(ptr noundef %3, i32 noundef %63, ptr noundef %0, i32 noundef %64, i32 noundef 2, i32 noundef %4)
  %66 = load i32, ptr %2, align 4
  %67 = add i32 %66, 2
  store i32 %67, ptr %2, align 4
  %68 = load i32, ptr @hf_x11_xkb_ListComponents_reply_extra, align 4
  %69 = tail call ptr @proto_tree_add_item(ptr noundef %3, i32 noundef %68, ptr noundef %0, i32 noundef %67, i32 noundef 2, i32 noundef %4)
  %70 = load i32, ptr %2, align 4
  %71 = add i32 %70, 2
  store i32 %71, ptr %2, align 4
  %72 = load i32, ptr @hf_x11_unused, align 4
  %73 = tail call ptr @proto_tree_add_item(ptr noundef %3, i32 noundef %72, ptr noundef %0, i32 noundef %71, i32 noundef 10, i32 noundef 0)
  %74 = load i32, ptr %2, align 4
  %75 = add i32 %74, 10
  store i32 %75, ptr %2, align 4
  tail call fastcc void @struct_xkb_Listing(ptr noundef %0, ptr noundef %2, ptr noundef %3, i32 noundef %4, i32 noundef %27)
  tail call fastcc void @struct_xkb_Listing(ptr noundef %0, ptr noundef %2, ptr noundef %3, i32 noundef %4, i32 noundef %34)
  tail call fastcc void @struct_xkb_Listing(ptr noundef %0, ptr noundef %2, ptr noundef %3, i32 noundef %4, i32 noundef %41)
  tail call fastcc void @struct_xkb_Listing(ptr noundef %0, ptr noundef %2, ptr noundef %3, i32 noundef %4, i32 noundef %48)
  tail call fastcc void @struct_xkb_Listing(ptr noundef %0, ptr noundef %2, ptr noundef %3, i32 noundef %4, i32 noundef %55)
  tail call fastcc void @struct_xkb_Listing(ptr noundef %0, ptr noundef %2, ptr noundef %3, i32 noundef %4, i32 noundef %62)
  ret void
}